; Function Attrs: mustprogress uwtable
define hidden noundef zeroext i1 @_ZN4cvc58internal6theory7strings11ArithEntail7checkEqENS0_12NodeTemplateILb1EEES5_(ptr noundef nonnull readonly align 8 captures(none) dereferenceable(128) %0, ptr noundef readonly captures(none) %1, ptr noundef readonly captures(none) %2) local_unnamed_addr #3 align 2 personality ptr @__gxx_personality_v0 {
  %4 = alloca %"class.cvc5::internal::NodeTemplate", align 8
  %5 = alloca %"class.cvc5::internal::NodeTemplate", align 8
  %6 = alloca %"class.cvc5::internal::NodeTemplate", align 8
  %7 = alloca %"class.cvc5::internal::NodeTemplate", align 8
  %8 = load ptr, ptr %1, align 8, !tbaa !25
  %9 = load ptr, ptr %2, align 8, !tbaa !25
  %10 = icmp eq ptr %8, %9
  br i1 %10, label %105, label %11

11:                                               ; preds = %3
  call void @llvm.lifetime.start.p0(i64 8, ptr nonnull %4) #22
  store ptr %8, ptr %5, align 8, !tbaa !25
  %12 = load i64, ptr %8, align 8
  %13 = lshr i64 %12, 40
  %14 = trunc nuw nsw i64 %13 to i32
  %15 = and i32 %14, 1048575
  %16 = icmp samesign ult i32 %15, 1048574
  br i1 %16, label %17, label %22, !prof !32

17:                                               ; preds = %11
  %18 = add i64 %12, 1099511627776
  %19 = and i64 %18, 1152920405095219200
  %20 = and i64 %12, -1152920405095219201
  %21 = or disjoint i64 %19, %20
  store i64 %21, ptr %8, align 8
  br label %_ZN4cvc58internal12NodeTemplateILb1EEC2ERKS2_.exit

22:                                               ; preds = %11
  %23 = icmp eq i32 %15, 1048574
  br i1 %23, label %24, label %_ZN4cvc58internal12NodeTemplateILb1EEC2ERKS2_.exit, !prof !31

24:                                               ; preds = %22
  %25 = or i64 %12, 1152920405095219200
  store i64 %25, ptr %8, align 8
  tail call void @_ZN4cvc58internal4expr9NodeValue20markRefCountMaxedOutEv(ptr noundef nonnull align 8 dereferenceable(24) %8)
  br label %_ZN4cvc58internal12NodeTemplateILb1EEC2ERKS2_.exit

_ZN4cvc58internal12NodeTemplateILb1EEC2ERKS2_.exit: ; preds = %17, %22, %24
  invoke void @_ZN4cvc58internal6theory7strings11ArithEntail12rewriteArithENS0_12NodeTemplateILb1EEE(ptr dead_on_unwind nonnull writable sret(%"class.cvc5::internal::NodeTemplate") align 8 %4, ptr noundef nonnull align 8 dereferenceable(128) %0, ptr noundef nonnull %5)
          to label %26 unwind label %97

26:                                               ; preds = %_ZN4cvc58internal12NodeTemplateILb1EEC2ERKS2_.exit
  %27 = load ptr, ptr %5, align 8, !tbaa !25
  %28 = load i64, ptr %27, align 8
  %29 = and i64 %28, 1152920405095219200
  %.not.i.i = icmp eq i64 %29, 1152920405095219200
  br i1 %.not.i.i, label %_ZN4cvc58internal12NodeTemplateILb1EED2Ev.exit, label %30, !prof !31

30:                                               ; preds = %26
  %31 = add i64 %28, 1152920405095219200
  %32 = and i64 %31, 1152920405095219200
  %33 = and i64 %28, -1152920405095219201
  %34 = or disjoint i64 %32, %33
  store i64 %34, ptr %27, align 8
  %35 = icmp eq i64 %32, 0
  br i1 %35, label %36, label %_ZN4cvc58internal12NodeTemplateILb1EED2Ev.exit, !prof !31

36:                                               ; preds = %30
  invoke void @_ZN4cvc58internal4expr9NodeValue15markForDeletionEv(ptr noundef nonnull align 8 dereferenceable(24) %27)
          to label %_ZN4cvc58internal12NodeTemplateILb1EED2Ev.exit unwind label %37

37:                                               ; preds = %36
  %38 = landingpad { ptr, i32 }
          catch ptr null
  %39 = extractvalue { ptr, i32 } %38, 0
  call void @__clang_call_terminate(ptr %39) #24
  unreachable

_ZN4cvc58internal12NodeTemplateILb1EED2Ev.exit:   ; preds = %26, %30, %36
  call void @llvm.lifetime.start.p0(i64 8, ptr nonnull %6) #22
  %40 = load ptr, ptr %2, align 8, !tbaa !25
  store ptr %40, ptr %7, align 8, !tbaa !25
  %41 = load i64, ptr %40, align 8
  %42 = lshr i64 %41, 40
  %43 = trunc nuw nsw i64 %42 to i32
  %44 = and i32 %43, 1048575
  %45 = icmp samesign ult i32 %44, 1048574
  br i1 %45, label %46, label %51, !prof !32

46:                                               ; preds = %_ZN4cvc58internal12NodeTemplateILb1EED2Ev.exit
  %47 = add i64 %41, 1099511627776
  %48 = and i64 %47, 1152920405095219200
  %49 = and i64 %41, -1152920405095219201
  %50 = or disjoint i64 %48, %49
  store i64 %50, ptr %40, align 8
  br label %_ZN4cvc58internal12NodeTemplateILb1EEC2ERKS2_.exit8

51:                                               ; preds = %_ZN4cvc58internal12NodeTemplateILb1EED2Ev.exit
  %52 = icmp eq i32 %44, 1048574
  br i1 %52, label %53, label %_ZN4cvc58internal12NodeTemplateILb1EEC2ERKS2_.exit8, !prof !31

53:                                               ; preds = %51
  %54 = or i64 %41, 1152920405095219200
  store i64 %54, ptr %40, align 8
  invoke void @_ZN4cvc58internal4expr9NodeValue20markRefCountMaxedOutEv(ptr noundef nonnull align 8 dereferenceable(24) %40)
          to label %_ZN4cvc58internal12NodeTemplateILb1EEC2ERKS2_.exit8 unwind label %99

_ZN4cvc58internal12NodeTemplateILb1EEC2ERKS2_.exit8: ; preds = %51, %46, %53
  invoke void @_ZN4cvc58internal6theory7strings11ArithEntail12rewriteArithENS0_12NodeTemplateILb1EEE(ptr dead_on_unwind nonnull writable sret(%"class.cvc5::internal::NodeTemplate") align 8 %6, ptr noundef nonnull align 8 dereferenceable(128) %0, ptr noundef nonnull %7)
          to label %55 unwind label %101

55:                                               ; preds = %_ZN4cvc58internal12NodeTemplateILb1EEC2ERKS2_.exit8
  %56 = load ptr, ptr %7, align 8, !tbaa !25
  %57 = load i64, ptr %56, align 8
  %58 = and i64 %57, 1152920405095219200
  %.not.i.i9 = icmp eq i64 %58, 1152920405095219200
  br i1 %.not.i.i9, label %_ZN4cvc58internal12NodeTemplateILb1EED2Ev.exit10, label %59, !prof !31

59:                                               ; preds = %55
  %60 = add i64 %57, 1152920405095219200
  %61 = and i64 %60, 1152920405095219200
  %62 = and i64 %57, -1152920405095219201
  %63 = or disjoint i64 %61, %62
  store i64 %63, ptr %56, align 8
  %64 = icmp eq i64 %61, 0
  br i1 %64, label %65, label %_ZN4cvc58internal12NodeTemplateILb1EED2Ev.exit10, !prof !31

65:                                               ; preds = %59
  invoke void @_ZN4cvc58internal4expr9NodeValue15markForDeletionEv(ptr noundef nonnull align 8 dereferenceable(24) %56)
          to label %_ZN4cvc58internal12NodeTemplateILb1EED2Ev.exit10 unwind label %66

66:                                               ; preds = %65
  %67 = landingpad { ptr, i32 }
          catch ptr null
  %68 = extractvalue { ptr, i32 } %67, 0
  call void @__clang_call_terminate(ptr %68) #24
  unreachable

_ZN4cvc58internal12NodeTemplateILb1EED2Ev.exit10: ; preds = %55, %59, %65
  %69 = load ptr, ptr %4, align 8, !tbaa !25
  %70 = load ptr, ptr %6, align 8, !tbaa !25
  %71 = icmp eq ptr %69, %70
  %72 = load i64, ptr %70, align 8
  %73 = and i64 %72, 1152920405095219200
  %.not.i.i11 = icmp eq i64 %73, 1152920405095219200
  br i1 %.not.i.i11, label %_ZN4cvc58internal12NodeTemplateILb1EED2Ev.exit12, label %74, !prof !31

74:                                               ; preds = %_ZN4cvc58internal12NodeTemplateILb1EED2Ev.exit10
  %75 = add i64 %72, 1152920405095219200
  %76 = and i64 %75, 1152920405095219200
  %77 = and i64 %72, -1152920405095219201
  %78 = or disjoint i64 %76, %77
  store i64 %78, ptr %70, align 8
  %79 = icmp eq i64 %76, 0
  br i1 %79, label %80, label %_ZN4cvc58internal12NodeTemplateILb1EED2Ev.exit12, !prof !31

80:                                               ; preds = %74
  invoke void @_ZN4cvc58internal4expr9NodeValue15markForDeletionEv(ptr noundef nonnull align 8 dereferenceable(24) %70)
          to label %_ZN4cvc58internal12NodeTemplateILb1EED2Ev.exit12 unwind label %81

81:                                               ; preds = %80
  %82 = landingpad { ptr, i32 }
          catch ptr null
  %83 = extractvalue { ptr, i32 } %82, 0
  call void @__clang_call_terminate(ptr %83) #24
  unreachable

_ZN4cvc58internal12NodeTemplateILb1EED2Ev.exit12: ; preds = %_ZN4cvc58internal12NodeTemplateILb1EED2Ev.exit10, %74, %80
  call void @llvm.lifetime.end.p0(i64 8, ptr nonnull %6) #22
  %84 = load ptr, ptr %4, align 8, !tbaa !25
  %85 = load i64, ptr %84, align 8
  %86 = and i64 %85, 1152920405095219200
  %.not.i.i13 = icmp eq i64 %86, 1152920405095219200
  br i1 %.not.i.i13, label %_ZN4cvc58internal12NodeTemplateILb1EED2Ev.exit14, label %87, !prof !31

87:                                               ; preds = %_ZN4cvc58internal12NodeTemplateILb1EED2Ev.exit12
  %88 = add i64 %85, 1152920405095219200
  %89 = and i64 %88, 1152920405095219200
  %90 = and i64 %85, -1152920405095219201
  %91 = or disjoint i64 %89, %90
  store i64 %91, ptr %84, align 8
  %92 = icmp eq i64 %89, 0
  br i1 %92, label %93, label %_ZN4cvc58internal12NodeTemplateILb1EED2Ev.exit14, !prof !31

93:                                               ; preds = %87
  invoke void @_ZN4cvc58internal4expr9NodeValue15markForDeletionEv(ptr noundef nonnull align 8 dereferenceable(24) %84)
          to label %_ZN4cvc58internal12NodeTemplateILb1EED2Ev.exit14 unwind label %94

94:                                               ; preds = %93
  %95 = landingpad { ptr, i32 }
          catch ptr null
  %96 = extractvalue { ptr, i32 } %95, 0
  call void @__clang_call_terminate(ptr %96) #24
  unreachable

_ZN4cvc58internal12NodeTemplateILb1EED2Ev.exit14: ; preds = %_ZN4cvc58internal12NodeTemplateILb1EED2Ev.exit12, %87, %93
  call void @llvm.lifetime.end.p0(i64 8, ptr nonnull %4) #22
  br label %105

97:                                               ; preds = %_ZN4cvc58internal12NodeTemplateILb1EEC2ERKS2_.exit
  %98 = landingpad { ptr, i32 }
          cleanup
  br label %104

99:                                               ; preds = %53
  %100 = landingpad { ptr, i32 }
          cleanup
  br label %103

101:                                              ; preds = %_ZN4cvc58internal12NodeTemplateILb1EEC2ERKS2_.exit8
  %102 = landingpad { ptr, i32 }
          cleanup
  call void @_ZN4cvc58internal12NodeTemplateILb1EED2Ev(ptr noundef nonnull align 8 dereferenceable(8) %7) #22
  br label %103

103:                                              ; preds = %101, %99
  %.pn = phi { ptr, i32 } [ %102, %101 ], [ %100, %99 ]
  call void @llvm.lifetime.end.p0(i64 8, ptr nonnull %6) #22
  br label %104

104:                                              ; preds = %103, %97
  %.sink = phi ptr [ %4, %103 ], [ %5, %97 ]
  %.pn.pn = phi { ptr, i32 } [ %.pn, %103 ], [ %98, %97 ]
  call void @_ZN4cvc58internal12NodeTemplateILb1EED2Ev(ptr noundef nonnull align 8 dereferenceable(8) %.sink) #22
  call void @llvm.lifetime.end.p0(i64 8, ptr nonnull %4) #22
  resume { ptr, i32 } %.pn.pn

105:                                              ; preds = %3, %_ZN4cvc58internal12NodeTemplateILb1EED2Ev.exit14
  %.05 = phi i1 [ %71, %_ZN4cvc58internal12NodeTemplateILb1EED2Ev.exit14 ], [ true, %3 ]
  ret i1 %.05
}